; Function Attrs: nounwind sspstrong uwtable
define dso_local ptr @get_vhost_net(ptr noundef %nc) local_unnamed_addr #0 {
entry:
  %tobool.not = icmp eq ptr %nc, null
  br i1 %tobool.not, label %return, label %if.end

if.end:                                           ; preds = %entry
  %0 = load ptr, ptr %nc, align 8
  %1 = load i32, ptr %0, align 8
  switch i32 %1, label %return [
    i32 3, label %sw.bb
    i32 12, label %sw.bb1
    i32 13, label %sw.bb6
  ]

sw.bb:                                            ; preds = %if.end
  %call = tail call ptr @tap_get_vhost_net(ptr noundef nonnull %nc) #11
  br label %return

sw.bb1:                                           ; preds = %if.end
  %call2 = tail call ptr @vhost_user_get_vhost_net(ptr noundef nonnull %nc) #11
  %tobool3.not = icmp eq ptr %call2, null
  br i1 %tobool3.not, label %if.else, label %return

if.else:                                          ; preds = %sw.bb1
  tail call void @__assert_fail(ptr noundef nonnull @.str.9, ptr noundef nonnull @.str.6, i32 noundef 523, ptr noundef nonnull @__PRETTY_FUNCTION__.get_vhost_net) #14
  unreachable

sw.bb6:                                           ; preds = %if.end
  %call7 = tail call ptr @vhost_vdpa_get_vhost_net(ptr noundef nonnull %nc) #11
  %tobool8.not = icmp eq ptr %call7, null
  br i1 %tobool8.not, label %if.else10, label %return

if.else10:                                        ; preds = %sw.bb6
  tail call void @__assert_fail(ptr noundef nonnull @.str.9, ptr noundef nonnull @.str.6, i32 noundef 529, ptr noundef nonnull @__PRETTY_FUNCTION__.get_vhost_net) #14
  unreachable

return:                                           ; preds = %sw.bb, %sw.bb1, %sw.bb6, %if.end, %entry
  %retval.0 = phi ptr [ null, %entry ], [ null, %if.end ], [ %call7, %sw.bb6 ], [ %call2, %sw.bb1 ], [ %call, %sw.bb ]
  ret ptr %retval.0
}